; Function Attrs: nounwind uwtable
define dso_local noundef ptr @data_set_dict(ptr noundef returned %0) local_unnamed_addr #0 {
  %.not = icmp eq ptr %0, null
  br i1 %.not, label %21, label %2

2:                                                ; preds = %1
  tail call fastcc void @_release(ptr noundef nonnull %0)
  %3 = getelementptr inbounds nuw i8, ptr %0, i64 4
  store i32 65283, ptr %3, align 4
  %4 = tail call ptr @slurm_xcalloc(i64 noundef 1, i64 noundef 32, i1 noundef zeroext true, i1 noundef zeroext false, ptr noundef nonnull @.str, i32 noundef 157, ptr noundef nonnull @__func__._data_list_new) #16
  store i32 429062303, ptr %4, align 8
  %5 = load i64, ptr getelementptr inbounds nuw (i8, ptr @slurm_conf, i64 320), align 8
  %6 = and i64 %5, 256
  %.not.i = icmp eq i64 %6, 0
  br i1 %.not.i, label %_data_list_new.exit, label %7

7:                                                ; preds = %2
  %8 = tail call i32 @get_log_level() #16
  %9 = icmp sgt i32 %8, 3
  br i1 %9, label %10, label %_data_list_new.exit

10:                                               ; preds = %7
  %11 = ptrtoint ptr %4 to i64
  %12 = getelementptr inbounds nuw i8, ptr %4, i64 8
  %13 = load i64, ptr %12, align 8
  tail call void (i32, ptr, ...) @log_var(i32 noundef 4, ptr noundef nonnull @.str.73, ptr noundef nonnull @__func__._data_list_new, i64 noundef %11, i64 noundef %13) #16
  br label %_data_list_new.exit

_data_list_new.exit:                              ; preds = %2, %7, %10
  %14 = getelementptr inbounds nuw i8, ptr %0, i64 8
  store ptr %4, ptr %14, align 8
  %15 = load i64, ptr getelementptr inbounds nuw (i8, ptr @slurm_conf, i64 320), align 8
  %16 = and i64 %15, 256
  %.not9 = icmp eq i64 %16, 0
  br i1 %.not9, label %21, label %17

17:                                               ; preds = %_data_list_new.exit
  %18 = tail call i32 @get_log_level() #16
  %19 = icmp sgt i32 %18, 3
  br i1 %19, label %20, label %21

20:                                               ; preds = %17
  tail call void (i32, ptr, ...) @log_var(i32 noundef 4, ptr noundef nonnull @.str.9, ptr noundef nonnull @__func__.data_set_dict, ptr noundef nonnull %0) #16
  br label %21

21:                                               ; preds = %20, %17, %_data_list_new.exit, %1
  ret ptr %0
}